target datalayout = "e-m:e-p270:32:32-p271:32:32-p272:64:64-i64:64-i128:128-f80:128-n8:16:32:64-S128"
target triple = "x86_64-pc-linux-gnu"

%struct.rb_data_type_struct = type { ptr, %struct.anon.16, ptr, ptr, i64 }
%struct.anon.16 = type { ptr, ptr, ptr, ptr, [1 x ptr] }
%struct.RString = type { %struct.RBasic, i64, %union.anon }
%struct.RBasic = type { i64, i64 }
%union.anon = type { %struct.anon }
%struct.anon = type { ptr, %union.anon.0 }
%union.anon.0 = type { i64 }
%struct.dump_arg = type { i64, i64, ptr, ptr, ptr, ptr, i64 }
%struct.RTypedData = type { %struct.RBasic, ptr, i64, ptr }

@s_write = internal global i64 0, align 8
@.str.15 = private unnamed_addr constant [8 x i8] c"binmode\00", align 1
@s_binmode = internal global i64 0, align 8
@rb_eRuntimeError = external global i64, align 8
@dump_arg_data = internal constant %struct.rb_data_type_struct { ptr @.str.27, %struct.anon.16 { ptr @mark_dump_arg, ptr @free_dump_arg, ptr @memsize_dump_arg, ptr null, [1 x ptr] zeroinitializer }, ptr null, ptr null, i64 3 }, align 8
@.str.28 = private unnamed_addr constant [29 x i8] c"Marshal.dump reentered at %s\00", align 1

; Function Attrs: inlinehint nounwind sspstrong willreturn memory(read) uwtable
define internal i64 @RSTRING_LEN(i64 noundef %0) #7 {
  %2 = alloca i64, align 8
  store i64 %0, ptr %2, align 8, !tbaa !7
  %3 = load i64, ptr %2, align 8, !tbaa !7
  %4 = inttoptr i64 %3 to ptr
  %5 = getelementptr inbounds nuw %struct.RString, ptr %4, i32 0, i32 1
  %6 = load i64, ptr %5, align 8, !tbaa !63
  ret i64 %6
}

; Function Attrs: nounwind sspstrong uwtable
define internal void @w_nbyte(ptr noundef %0, i64 noundef %1, ptr noundef %2) #0 {
  %4 = alloca ptr, align 8
  %5 = alloca i64, align 8
  %6 = alloca ptr, align 8
  %7 = alloca i64, align 8
  store ptr %0, ptr %4, align 8, !tbaa !20
  store i64 %1, ptr %5, align 8, !tbaa !7
  store ptr %2, ptr %6, align 8, !tbaa !39
  call void @llvm.lifetime.start.p0(i64 8, ptr %7) #23
  %8 = load ptr, ptr %6, align 8, !tbaa !39
  %9 = getelementptr inbounds nuw %struct.dump_arg, ptr %8, i32 0, i32 0
  %10 = load i64, ptr %9, align 8, !tbaa !48
  store i64 %10, ptr %7, align 8, !tbaa !7
  %11 = load i64, ptr %7, align 8, !tbaa !7
  %12 = load ptr, ptr %4, align 8, !tbaa !20
  %13 = load i64, ptr %5, align 8, !tbaa !7
  %14 = call i64 @rb_str_cat(i64 noundef %11, ptr noundef %12, i64 noundef %13)
  %15 = load ptr, ptr %6, align 8, !tbaa !39
  %16 = getelementptr inbounds nuw %struct.dump_arg, ptr %15, i32 0, i32 1
  %17 = load i64, ptr %16, align 8, !tbaa !41
  %18 = icmp ne i64 %17, 0
  br i1 %18, label %19, label %31

19:                                               ; preds = %3
  %20 = load i64, ptr %7, align 8, !tbaa !7
  %21 = call i64 @RSTRING_LEN(i64 noundef %20) #27
  %22 = icmp sge i64 %21, 8192
  br i1 %22, label %23, label %31

23:                                               ; preds = %19
  %24 = load ptr, ptr %6, align 8, !tbaa !39
  %25 = getelementptr inbounds nuw %struct.dump_arg, ptr %24, i32 0, i32 1
  %26 = load i64, ptr %25, align 8, !tbaa !41
  %27 = load i64, ptr %7, align 8, !tbaa !7
  %28 = call i64 @rb_io_write(i64 noundef %26, i64 noundef %27)
  %29 = load i64, ptr %7, align 8, !tbaa !7
  %30 = call i64 @rb_str_resize(i64 noundef %29, i64 noundef 0)
  br label %31

31:                                               ; preds = %23, %19, %3
  call void @llvm.lifetime.end.p0(i64 8, ptr %7) #23
  ret void
}

; Function Attrs: inlinehint nounwind sspstrong uwtable
define internal zeroext i1 @RTYPEDDATA_EMBEDDED_P(i64 noundef %0) #5 {
  %2 = alloca i64, align 8
  store i64 %0, ptr %2, align 8, !tbaa !7
  %3 = load i64, ptr %2, align 8, !tbaa !7
  %4 = inttoptr i64 %3 to ptr
  %5 = getelementptr inbounds nuw %struct.RTypedData, ptr %4, i32 0, i32 2
  %6 = load i64, ptr %5, align 8, !tbaa !92
  %7 = and i64 %6, 2
  %8 = icmp ne i64 %7, 0
  ret i1 %8
}

; Function Attrs: nounwind sspstrong uwtable
define internal void @clear_dump_arg(ptr noundef %0) #0 {
  %2 = alloca ptr, align 8
  store ptr %0, ptr %2, align 8, !tbaa !39
  %3 = load ptr, ptr %2, align 8, !tbaa !39
  %4 = getelementptr inbounds nuw %struct.dump_arg, ptr %3, i32 0, i32 2
  %5 = load ptr, ptr %4, align 8, !tbaa !43
  %6 = icmp ne ptr %5, null
  br i1 %6, label %8, label %7

7:                                                ; preds = %1
  br label %42

8:                                                ; preds = %1
  %9 = load ptr, ptr %2, align 8, !tbaa !39
  %10 = getelementptr inbounds nuw %struct.dump_arg, ptr %9, i32 0, i32 2
  %11 = load ptr, ptr %10, align 8, !tbaa !43
  call void @rb_st_free_table(ptr noundef %11)
  %12 = load ptr, ptr %2, align 8, !tbaa !39
  %13 = getelementptr inbounds nuw %struct.dump_arg, ptr %12, i32 0, i32 2
  store ptr null, ptr %13, align 8, !tbaa !43
  %14 = load ptr, ptr %2, align 8, !tbaa !39
  %15 = getelementptr inbounds nuw %struct.dump_arg, ptr %14, i32 0, i32 3
  %16 = load ptr, ptr %15, align 8, !tbaa !44
  call void @rb_st_free_table(ptr noundef %16)
  %17 = load ptr, ptr %2, align 8, !tbaa !39
  %18 = getelementptr inbounds nuw %struct.dump_arg, ptr %17, i32 0, i32 3
  store ptr null, ptr %18, align 8, !tbaa !44
  %19 = load ptr, ptr %2, align 8, !tbaa !39
  %20 = getelementptr inbounds nuw %struct.dump_arg, ptr %19, i32 0, i32 6
  store i64 0, ptr %20, align 8, !tbaa !45
  %21 = load ptr, ptr %2, align 8, !tbaa !39
  %22 = getelementptr inbounds nuw %struct.dump_arg, ptr %21, i32 0, i32 4
  %23 = load ptr, ptr %22, align 8, !tbaa !46
  %24 = icmp ne ptr %23, null
  br i1 %24, label %25, label %31

25:                                               ; preds = %8
  %26 = load ptr, ptr %2, align 8, !tbaa !39
  %27 = getelementptr inbounds nuw %struct.dump_arg, ptr %26, i32 0, i32 4
  %28 = load ptr, ptr %27, align 8, !tbaa !46
  call void @rb_st_free_table(ptr noundef %28)
  %29 = load ptr, ptr %2, align 8, !tbaa !39
  %30 = getelementptr inbounds nuw %struct.dump_arg, ptr %29, i32 0, i32 4
  store ptr null, ptr %30, align 8, !tbaa !46
  br label %31

31:                                               ; preds = %25, %8
  %32 = load ptr, ptr %2, align 8, !tbaa !39
  %33 = getelementptr inbounds nuw %struct.dump_arg, ptr %32, i32 0, i32 5
  %34 = load ptr, ptr %33, align 8, !tbaa !47
  %35 = icmp ne ptr %34, null
  br i1 %35, label %36, label %42

36:                                               ; preds = %31
  %37 = load ptr, ptr %2, align 8, !tbaa !39
  %38 = getelementptr inbounds nuw %struct.dump_arg, ptr %37, i32 0, i32 5
  %39 = load ptr, ptr %38, align 8, !tbaa !47
  call void @rb_st_free_table(ptr noundef %39)
  %40 = load ptr, ptr %2, align 8, !tbaa !39
  %41 = getelementptr inbounds nuw %struct.dump_arg, ptr %40, i32 0, i32 5
  store ptr null, ptr %41, align 8, !tbaa !47
  br label %42

42:                                               ; preds = %7, %36, %31
  ret void
}

; Function Attrs: nounwind sspstrong uwtable
define internal void @w_byte(i8 noundef signext %0, ptr noundef %1) #0 {
  %3 = alloca i8, align 1
  %4 = alloca ptr, align 8
  store i8 %0, ptr %3, align 1, !tbaa !24
  store ptr %1, ptr %4, align 8, !tbaa !39
  %5 = load ptr, ptr %4, align 8, !tbaa !39
  call void @w_nbyte(ptr noundef %3, i64 noundef 1, ptr noundef %5)
  ret void
}

; Function Attrs: nounwind sspstrong uwtable
define internal i64 @check_dump_arg(i64 noundef %0, ptr noundef %1, ptr noundef %2) #0 {
  %4 = alloca i64, align 8
  %5 = alloca ptr, align 8
  %6 = alloca ptr, align 8
  store i64 %0, ptr %4, align 8, !tbaa !7
  store ptr %1, ptr %5, align 8, !tbaa !39
  store ptr %2, ptr %6, align 8, !tbaa !20
  %7 = load ptr, ptr %5, align 8, !tbaa !39
  %8 = getelementptr inbounds nuw %struct.dump_arg, ptr %7, i32 0, i32 2
  %9 = load ptr, ptr %8, align 8, !tbaa !43
  %10 = icmp ne ptr %9, null
  br i1 %10, label %14, label %11

11:                                               ; preds = %3
  %12 = load i64, ptr @rb_eRuntimeError, align 8, !tbaa !7
  %13 = load ptr, ptr %6, align 8, !tbaa !20
  call void (i64, ptr, ...) @rb_raise(i64 noundef %12, ptr noundef @.str.28, ptr noundef %13) #24
  unreachable

14:                                               ; preds = %3
  %15 = load i64, ptr %4, align 8, !tbaa !7
  ret i64 %15
}

; Function Attrs: inlinehint nounwind sspstrong willreturn memory(none) uwtable
define internal zeroext i1 @RB_NIL_P(i64 noundef %0) #8 {
  %2 = alloca i64, align 8
  store i64 %0, ptr %2, align 8, !tbaa !7
  %3 = load i64, ptr %2, align 8, !tbaa !7
  %4 = icmp eq i64 %3, 4
  ret i1 %4
}

; Function Attrs: inlinehint nounwind sspstrong uwtable
define internal ptr @RTYPEDDATA_GET_DATA(i64 noundef %0) #5 {
  %2 = alloca i64, align 8
  %3 = alloca i64, align 8
  store i64 %0, ptr %2, align 8, !tbaa !7
  call void @llvm.lifetime.start.p0(i64 8, ptr %3) #23
  store i64 32, ptr %3, align 8, !tbaa !7
  %4 = load i64, ptr %2, align 8, !tbaa !7
  %5 = call zeroext i1 @RTYPEDDATA_EMBEDDED_P(i64 noundef %4)
  br i1 %5, label %6, label %10

6:                                                ; preds = %1
  %7 = load i64, ptr %2, align 8, !tbaa !7
  %8 = inttoptr i64 %7 to ptr
  %9 = getelementptr i8, ptr %8, i64 32
  br label %15

10:                                               ; preds = %1
  %11 = load i64, ptr %2, align 8, !tbaa !7
  %12 = inttoptr i64 %11 to ptr
  %13 = getelementptr inbounds nuw %struct.RTypedData, ptr %12, i32 0, i32 3
  %14 = load ptr, ptr %13, align 8, !tbaa !75
  br label %15

15:                                               ; preds = %10, %6
  %16 = phi ptr [ %9, %6 ], [ %14, %10 ]
  call void @llvm.lifetime.end.p0(i64 8, ptr %3) #23
  ret ptr %16
}

; Function Attrs: nounwind sspstrong uwtable
define internal i64 @rb_marshal_dump_limited(i64 noundef %0, i64 noundef %1, i32 noundef %2) #0 {
  %4 = alloca i64, align 8
  %5 = alloca i64, align 8
  %6 = alloca i32, align 4
  %7 = alloca ptr, align 8
  %8 = alloca i64, align 8
  %9 = alloca i64, align 8
  %10 = alloca i64, align 8
  %11 = alloca ptr, align 8
  %12 = alloca ptr, align 8
  store i64 %0, ptr %4, align 8, !tbaa !7
  store i64 %1, ptr %5, align 8, !tbaa !7
  store i32 %2, ptr %6, align 4, !tbaa !22
  call void @llvm.lifetime.start.p0(i64 8, ptr %7) #23
  call void @llvm.lifetime.start.p0(i64 8, ptr %8) #23
  call void @llvm.lifetime.start.p0(i64 8, ptr %9) #23
  %13 = call i64 @rb_data_typed_object_zalloc(i64 noundef 0, i64 noundef 56, ptr noundef @dump_arg_data)
  store i64 %13, ptr %9, align 8, !tbaa !7
  %14 = load i64, ptr %9, align 8, !tbaa !7
  %15 = call ptr @RTYPEDDATA_GET_DATA(i64 noundef %14)
  store ptr %15, ptr %7, align 8, !tbaa !39
  %16 = load i64, ptr %9, align 8, !tbaa !7
  store i64 %16, ptr %10, align 8, !tbaa !7
  call void @llvm.lifetime.end.p0(i64 8, ptr %9) #23
  %17 = load i64, ptr %10, align 8, !tbaa !7
  store i64 %17, ptr %8, align 8, !tbaa !7
  %18 = load ptr, ptr %7, align 8, !tbaa !39
  %19 = getelementptr inbounds nuw %struct.dump_arg, ptr %18, i32 0, i32 1
  store i64 0, ptr %19, align 8, !tbaa !41
  %20 = call ptr @rb_st_init_numtable()
  %21 = load ptr, ptr %7, align 8, !tbaa !39
  %22 = getelementptr inbounds nuw %struct.dump_arg, ptr %21, i32 0, i32 2
  store ptr %20, ptr %22, align 8, !tbaa !43
  %23 = call ptr @rb_init_identtable()
  %24 = load ptr, ptr %7, align 8, !tbaa !39
  %25 = getelementptr inbounds nuw %struct.dump_arg, ptr %24, i32 0, i32 3
  store ptr %23, ptr %25, align 8, !tbaa !44
  %26 = load ptr, ptr %7, align 8, !tbaa !39
  %27 = getelementptr inbounds nuw %struct.dump_arg, ptr %26, i32 0, i32 6
  store i64 0, ptr %27, align 8, !tbaa !45
  %28 = load ptr, ptr %7, align 8, !tbaa !39
  %29 = getelementptr inbounds nuw %struct.dump_arg, ptr %28, i32 0, i32 4
  store ptr null, ptr %29, align 8, !tbaa !46
  %30 = load ptr, ptr %7, align 8, !tbaa !39
  %31 = getelementptr inbounds nuw %struct.dump_arg, ptr %30, i32 0, i32 5
  store ptr null, ptr %31, align 8, !tbaa !47
  %32 = call i64 @rb_str_buf_new(i64 noundef 0)
  %33 = load ptr, ptr %7, align 8, !tbaa !39
  %34 = getelementptr inbounds nuw %struct.dump_arg, ptr %33, i32 0, i32 0
  store i64 %32, ptr %34, align 8, !tbaa !48
  %35 = load i64, ptr %5, align 8, !tbaa !7
  %36 = call zeroext i1 @RB_NIL_P(i64 noundef %35) #26
  br i1 %36, label %52, label %37

37:                                               ; preds = %3
  %38 = load i64, ptr %5, align 8, !tbaa !7
  %39 = load i64, ptr @s_write, align 8, !tbaa !7
  %40 = call i32 @rb_respond_to(i64 noundef %38, i64 noundef %39)
  %41 = icmp ne i32 %40, 0
  br i1 %41, label %43, label %42

42:                                               ; preds = %37
  call void @io_needed() #24
  unreachable

43:                                               ; preds = %37
  %44 = load i64, ptr %5, align 8, !tbaa !7
  %45 = load ptr, ptr %7, align 8, !tbaa !39
  %46 = getelementptr inbounds nuw %struct.dump_arg, ptr %45, i32 0, i32 1
  store i64 %44, ptr %46, align 8, !tbaa !41
  %47 = load i64, ptr %5, align 8, !tbaa !7
  %48 = load i64, ptr @s_binmode, align 8, !tbaa !7
  %49 = call i64 @rb_check_funcall(i64 noundef %47, i64 noundef %48, i32 noundef 0, ptr noundef null)
  %50 = load ptr, ptr %7, align 8, !tbaa !39
  %51 = call i64 @check_dump_arg(i64 noundef %49, ptr noundef %50, ptr noundef @.str.15)
  br label %56

52:                                               ; preds = %3
  %53 = load ptr, ptr %7, align 8, !tbaa !39
  %54 = getelementptr inbounds nuw %struct.dump_arg, ptr %53, i32 0, i32 0
  %55 = load i64, ptr %54, align 8, !tbaa !48
  store i64 %55, ptr %5, align 8, !tbaa !7
  br label %56

56:                                               ; preds = %52, %43
  %57 = load ptr, ptr %7, align 8, !tbaa !39
  call void @w_byte(i8 noundef signext 4, ptr noundef %57)
  %58 = load ptr, ptr %7, align 8, !tbaa !39
  call void @w_byte(i8 noundef signext 8, ptr noundef %58)
  %59 = load i64, ptr %4, align 8, !tbaa !7
  %60 = load ptr, ptr %7, align 8, !tbaa !39
  %61 = load i32, ptr %6, align 4, !tbaa !22
  call void @w_object(i64 noundef %59, ptr noundef %60, i32 noundef %61)
  %62 = load ptr, ptr %7, align 8, !tbaa !39
  %63 = getelementptr inbounds nuw %struct.dump_arg, ptr %62, i32 0, i32 1
  %64 = load i64, ptr %63, align 8, !tbaa !41
  %65 = icmp ne i64 %64, 0
  br i1 %65, label %66, label %78

66:                                               ; preds = %56
  %67 = load ptr, ptr %7, align 8, !tbaa !39
  %68 = getelementptr inbounds nuw %struct.dump_arg, ptr %67, i32 0, i32 1
  %69 = load i64, ptr %68, align 8, !tbaa !41
  %70 = load ptr, ptr %7, align 8, !tbaa !39
  %71 = getelementptr inbounds nuw %struct.dump_arg, ptr %70, i32 0, i32 0
  %72 = load i64, ptr %71, align 8, !tbaa !48
  %73 = call i64 @rb_io_write(i64 noundef %69, i64 noundef %72)
  %74 = load ptr, ptr %7, align 8, !tbaa !39
  %75 = getelementptr inbounds nuw %struct.dump_arg, ptr %74, i32 0, i32 0
  %76 = load i64, ptr %75, align 8, !tbaa !48
  %77 = call i64 @rb_str_resize(i64 noundef %76, i64 noundef 0)
  br label %78

78:                                               ; preds = %66, %56
  %79 = load ptr, ptr %7, align 8, !tbaa !39
  call void @clear_dump_arg(ptr noundef %79)
  call void @llvm.lifetime.start.p0(i64 8, ptr %11) #23
  store ptr %8, ptr %11, align 8, !tbaa !18
  call void asm sideeffect "", "*m,~{dirflag},~{fpsr},~{flags}"(ptr elementtype(ptr) %11) #23, !srcloc !49
  %80 = load ptr, ptr %11, align 8, !tbaa !18
  store ptr %80, ptr %12, align 8, !tbaa !18
  call void @llvm.lifetime.end.p0(i64 8, ptr %11) #23
  %81 = load ptr, ptr %12, align 8, !tbaa !18
  %82 = load volatile i64, ptr %81, align 8, !tbaa !7
  %83 = load i64, ptr %5, align 8, !tbaa !7
  call void @llvm.lifetime.end.p0(i64 8, ptr %8) #23
  call void @llvm.lifetime.end.p0(i64 8, ptr %7) #23
  ret i64 %83
}