; Function Attrs: nounwind sspstrong uwtable
define internal fastcc i64 @rb_marshal_dump_limited(i64 noundef %0, i64 noundef %1, i32 noundef %2) unnamed_addr #0 {
  %4 = alloca i8, align 1
  %5 = alloca i8, align 1
  %6 = alloca i64, align 8
  %7 = alloca ptr, align 8
  call void @llvm.lifetime.start.p0(i64 8, ptr nonnull %6) #22
  %8 = tail call i64 @rb_data_typed_object_zalloc(i64 noundef 0, i64 noundef 56, ptr noundef nonnull @dump_arg_data) #22
  %9 = inttoptr i64 %8 to ptr
  %10 = getelementptr inbounds nuw i8, ptr %9, i64 24
  %11 = load i64, ptr %10, align 8, !tbaa !31
  %12 = and i64 %11, 2
  %.not.i = icmp eq i64 %12, 0
  %13 = getelementptr i8, ptr %9, i64 32
  br i1 %.not.i, label %14, label %RTYPEDDATA_GET_DATA.exit

14:                                               ; preds = %3
  %15 = load ptr, ptr %13, align 8, !tbaa !35
  br label %RTYPEDDATA_GET_DATA.exit

RTYPEDDATA_GET_DATA.exit:                         ; preds = %3, %14
  %16 = phi ptr [ %15, %14 ], [ %13, %3 ]
  store i64 %8, ptr %6, align 8, !tbaa !7
  %17 = getelementptr inbounds nuw i8, ptr %16, i64 8
  store i64 0, ptr %17, align 8, !tbaa !36
  %18 = tail call ptr @rb_st_init_numtable() #22
  %19 = getelementptr inbounds nuw i8, ptr %16, i64 16
  store ptr %18, ptr %19, align 8, !tbaa !38
  %20 = tail call ptr @rb_init_identtable() #22
  %21 = getelementptr inbounds nuw i8, ptr %16, i64 24
  store ptr %20, ptr %21, align 8, !tbaa !39
  %22 = getelementptr inbounds nuw i8, ptr %16, i64 48
  %23 = getelementptr inbounds nuw i8, ptr %16, i64 32
  %24 = getelementptr inbounds nuw i8, ptr %16, i64 40
  tail call void @llvm.memset.p0.i64(ptr noundef nonnull align 8 dereferenceable(24) %23, i8 0, i64 24, i1 false)
  %25 = tail call i64 @rb_str_buf_new(i64 noundef 0) #22
  store i64 %25, ptr %16, align 8, !tbaa !40
  %26 = icmp eq i64 %1, 4
  br i1 %26, label %check_dump_arg.exit, label %27

27:                                               ; preds = %RTYPEDDATA_GET_DATA.exit
  %28 = load i64, ptr @s_write, align 8, !tbaa !7
  %29 = tail call i32 @rb_respond_to(i64 noundef %1, i64 noundef %28) #22
  %.not = icmp eq i32 %29, 0
  br i1 %.not, label %30, label %31

30:                                               ; preds = %27
  tail call fastcc void @io_needed() #25
  unreachable

31:                                               ; preds = %27
  store i64 %1, ptr %17, align 8, !tbaa !36
  %32 = load i64, ptr @s_binmode, align 8, !tbaa !7
  %33 = tail call i64 @rb_check_funcall(i64 noundef %1, i64 noundef %32, i32 noundef 0, ptr noundef null) #22
  %.val = load ptr, ptr %19, align 8, !tbaa !38
  %.not.i30 = icmp eq ptr %.val, null
  br i1 %.not.i30, label %34, label %.check_dump_arg.exit_crit_edge

.check_dump_arg.exit_crit_edge:                   ; preds = %31
  %.pre = load i64, ptr %16, align 8, !tbaa !40
  br label %check_dump_arg.exit

34:                                               ; preds = %31
  %35 = load i64, ptr @rb_eRuntimeError, align 8, !tbaa !7
  tail call void (i64, ptr, ...) @rb_raise(i64 noundef %35, ptr noundef nonnull @.str.28, ptr noundef nonnull @.str.15) #23
  unreachable

check_dump_arg.exit:                              ; preds = %.check_dump_arg.exit_crit_edge, %RTYPEDDATA_GET_DATA.exit
  %36 = phi i64 [ %25, %RTYPEDDATA_GET_DATA.exit ], [ %.pre, %.check_dump_arg.exit_crit_edge ]
  %.0 = phi i64 [ %25, %RTYPEDDATA_GET_DATA.exit ], [ %1, %.check_dump_arg.exit_crit_edge ]
  call void @llvm.lifetime.start.p0(i64 1, ptr nonnull %5)
  store i8 4, ptr %5, align 1, !tbaa !17
  %37 = call i64 @rb_str_cat(i64 noundef %36, ptr noundef nonnull %5, i64 noundef 1) #22
  %38 = load i64, ptr %17, align 8, !tbaa !36
  %.not.i.i = icmp eq i64 %38, 0
  br i1 %.not.i.i, label %w_byte.exit, label %39

39:                                               ; preds = %check_dump_arg.exit
  %40 = inttoptr i64 %36 to ptr
  %41 = getelementptr inbounds nuw i8, ptr %40, i64 16
  %42 = load i64, ptr %41, align 8, !tbaa !41
  %43 = icmp sgt i64 %42, 8191
  br i1 %43, label %44, label %w_byte.exit

44:                                               ; preds = %39
  %45 = call i64 @rb_io_write(i64 noundef %38, i64 noundef %36) #22
  %46 = call i64 @rb_str_resize(i64 noundef %36, i64 noundef 0) #22
  br label %w_byte.exit

w_byte.exit:                                      ; preds = %check_dump_arg.exit, %39, %44
  call void @llvm.lifetime.end.p0(i64 1, ptr nonnull %5)
  call void @llvm.lifetime.start.p0(i64 1, ptr nonnull %4)
  store i8 8, ptr %4, align 1, !tbaa !17
  %47 = load i64, ptr %16, align 8, !tbaa !40
  %48 = call i64 @rb_str_cat(i64 noundef %47, ptr noundef nonnull %4, i64 noundef 1) #22
  %49 = load i64, ptr %17, align 8, !tbaa !36
  %.not.i.i31 = icmp eq i64 %49, 0
  br i1 %.not.i.i31, label %w_byte.exit32, label %50

50:                                               ; preds = %w_byte.exit
  %51 = inttoptr i64 %47 to ptr
  %52 = getelementptr inbounds nuw i8, ptr %51, i64 16
  %53 = load i64, ptr %52, align 8, !tbaa !41
  %54 = icmp sgt i64 %53, 8191
  br i1 %54, label %55, label %w_byte.exit32

55:                                               ; preds = %50
  %56 = call i64 @rb_io_write(i64 noundef %49, i64 noundef %47) #22
  %57 = call i64 @rb_str_resize(i64 noundef %47, i64 noundef 0) #22
  br label %w_byte.exit32

w_byte.exit32:                                    ; preds = %w_byte.exit, %50, %55
  call void @llvm.lifetime.end.p0(i64 1, ptr nonnull %4)
  call fastcc void @w_object(i64 noundef %0, ptr noundef nonnull %16, i32 noundef %2)
  %58 = load i64, ptr %17, align 8, !tbaa !36
  %.not29 = icmp eq i64 %58, 0
  br i1 %.not29, label %64, label %59

59:                                               ; preds = %w_byte.exit32
  %60 = load i64, ptr %16, align 8, !tbaa !40
  %61 = call i64 @rb_io_write(i64 noundef %58, i64 noundef %60) #22
  %62 = load i64, ptr %16, align 8, !tbaa !40
  %63 = call i64 @rb_str_resize(i64 noundef %62, i64 noundef 0) #22
  br label %64

64:                                               ; preds = %59, %w_byte.exit32
  %65 = load ptr, ptr %19, align 8, !tbaa !38
  %.not.i33 = icmp eq ptr %65, null
  br i1 %.not.i33, label %clear_dump_arg.exit, label %66

66:                                               ; preds = %64
  call void @rb_st_free_table(ptr noundef nonnull %65) #22
  store ptr null, ptr %19, align 8, !tbaa !38
  %67 = load ptr, ptr %21, align 8, !tbaa !39
  call void @rb_st_free_table(ptr noundef %67) #22
  store ptr null, ptr %21, align 8, !tbaa !39
  store i64 0, ptr %22, align 8, !tbaa !43
  %68 = load ptr, ptr %23, align 8, !tbaa !44
  %.not14.i = icmp eq ptr %68, null
  br i1 %.not14.i, label %70, label %69

69:                                               ; preds = %66
  call void @rb_st_free_table(ptr noundef nonnull %68) #22
  store ptr null, ptr %23, align 8, !tbaa !44
  br label %70

70:                                               ; preds = %69, %66
  %71 = load ptr, ptr %24, align 8, !tbaa !45
  %.not15.i = icmp eq ptr %71, null
  br i1 %.not15.i, label %clear_dump_arg.exit, label %72

72:                                               ; preds = %70
  call void @rb_st_free_table(ptr noundef nonnull %71) #22
  store ptr null, ptr %24, align 8, !tbaa !45
  br label %clear_dump_arg.exit

clear_dump_arg.exit:                              ; preds = %64, %70, %72
  call void @llvm.lifetime.start.p0(i64 8, ptr nonnull %7) #22
  store ptr %6, ptr %7, align 8, !tbaa !28
  call void asm sideeffect "", "*m,~{dirflag},~{fpsr},~{flags}"(ptr nonnull elementtype(ptr) %7) #22, !srcloc !46
  %73 = load ptr, ptr %7, align 8, !tbaa !28
  call void @llvm.lifetime.end.p0(i64 8, ptr nonnull %7) #22
  %74 = load volatile i64, ptr %73, align 8, !tbaa !7
  call void @llvm.lifetime.end.p0(i64 8, ptr nonnull %6) #22
  ret i64 %.0
}